target datalayout = "e-m:e-p270:32:32-p271:32:32-p272:64:64-i64:64-i128:128-f80:128-n8:16:32:64-S128"
target triple = "x86_64-pc-linux-gnu"

%struct.AVBPrint = type { ptr, i32, i32, i32, [1 x i8], [1000 x i8] }
%struct.GraphPrintContext = type { ptr, ptr, %struct.AVDiagramConfig, i32, i32, i32, i32, %struct.AVBPrint }
%struct.AVDiagramConfig = type { i32, ptr, ptr }
%struct.AVTextFormatSectionContext = type { ptr, ptr, i32 }

@.str.60 = private unnamed_addr constant [5 x i8] c"G%d_\00", align 1

; Function Attrs: nounwind uwtable
define internal signext i8 @sanitize_char(i8 noundef signext %0) #0 {
  %2 = alloca i8, align 1
  %3 = alloca i8, align 1
  store i8 %0, ptr %3, align 1, !tbaa !160
  %4 = load i8, ptr %3, align 1, !tbaa !160
  %5 = sext i8 %4 to i32
  %6 = icmp sge i32 %5, 48
  br i1 %6, label %7, label %11

7:                                                ; preds = %1
  %8 = load i8, ptr %3, align 1, !tbaa !160
  %9 = sext i8 %8 to i32
  %10 = icmp sle i32 %9, 57
  br i1 %10, label %27, label %11

11:                                               ; preds = %7, %1
  %12 = load i8, ptr %3, align 1, !tbaa !160
  %13 = sext i8 %12 to i32
  %14 = icmp sge i32 %13, 97
  br i1 %14, label %15, label %19

15:                                               ; preds = %11
  %16 = load i8, ptr %3, align 1, !tbaa !160
  %17 = sext i8 %16 to i32
  %18 = icmp sle i32 %17, 122
  br i1 %18, label %27, label %19

19:                                               ; preds = %15, %11
  %20 = load i8, ptr %3, align 1, !tbaa !160
  %21 = sext i8 %20 to i32
  %22 = icmp sge i32 %21, 65
  br i1 %22, label %23, label %29

23:                                               ; preds = %19
  %24 = load i8, ptr %3, align 1, !tbaa !160
  %25 = sext i8 %24 to i32
  %26 = icmp sle i32 %25, 90
  br i1 %26, label %27, label %29

27:                                               ; preds = %23, %15, %7
  %28 = load i8, ptr %3, align 1, !tbaa !160
  store i8 %28, ptr %2, align 1
  br label %30

29:                                               ; preds = %23, %19
  store i8 95, ptr %2, align 1
  br label %30

30:                                               ; preds = %29, %27
  %31 = load i8, ptr %2, align 1
  ret i8 %31
}

; Function Attrs: nounwind uwtable
define internal void @print_section_header_id(ptr noundef %0, i32 noundef %1, ptr noundef %2, i32 noundef %3) #0 {
  %5 = alloca ptr, align 8
  %6 = alloca i32, align 4
  %7 = alloca ptr, align 8
  %8 = alloca i32, align 4
  %9 = alloca ptr, align 8
  %10 = alloca %struct.AVTextFormatSectionContext, align 8
  %11 = alloca %struct.AVBPrint, align 8
  %12 = alloca i32, align 4
  %13 = alloca ptr, align 8
  store ptr %0, ptr %5, align 8, !tbaa !11
  store i32 %1, ptr %6, align 4, !tbaa !21
  store ptr %2, ptr %7, align 8, !tbaa !33
  store i32 %3, ptr %8, align 4, !tbaa !21
  call void @llvm.lifetime.start.p0(i64 8, ptr %9) #9
  %14 = load ptr, ptr %5, align 8, !tbaa !11
  %15 = getelementptr inbounds nuw %struct.GraphPrintContext, ptr %14, i32 0, i32 0
  %16 = load ptr, ptr %15, align 8, !tbaa !22
  store ptr %16, ptr %9, align 8, !tbaa !27
  call void @llvm.lifetime.start.p0(i64 24, ptr %10) #9
  call void @llvm.memset.p0.i64(ptr align 8 %10, i8 0, i64 24, i1 false)
  call void @llvm.lifetime.start.p0(i64 1024, ptr %11) #9
  %17 = load ptr, ptr %7, align 8, !tbaa !33
  %18 = icmp ne ptr %17, null
  br i1 %18, label %20, label %19

19:                                               ; preds = %4
  store i32 1, ptr %12, align 4
  br label %48

20:                                               ; preds = %4
  call void @av_bprint_init(ptr noundef %11, i32 noundef 0, i32 noundef -1)
  %21 = load i32, ptr %8, align 4, !tbaa !21
  %22 = icmp ne i32 %21, 0
  br i1 %22, label %27, label %23

23:                                               ; preds = %20
  %24 = load ptr, ptr %5, align 8, !tbaa !11
  %25 = getelementptr inbounds nuw %struct.GraphPrintContext, ptr %24, i32 0, i32 3
  %26 = load i32, ptr %25, align 8, !tbaa !37
  call void (ptr, ptr, ...) @av_bprintf(ptr noundef %11, ptr noundef @.str.60, i32 noundef %26)
  br label %27

27:                                               ; preds = %23, %20
  call void @llvm.lifetime.start.p0(i64 8, ptr %13) #9
  %28 = load ptr, ptr %7, align 8, !tbaa !33
  store ptr %28, ptr %13, align 8, !tbaa !33
  br label %29

29:                                               ; preds = %38, %27
  %30 = load ptr, ptr %13, align 8, !tbaa !33
  %31 = load i8, ptr %30, align 1, !tbaa !160
  %32 = icmp ne i8 %31, 0
  br i1 %32, label %34, label %33

33:                                               ; preds = %29
  store i32 2, ptr %12, align 4
  call void @llvm.lifetime.end.p0(i64 8, ptr %13) #9
  br label %41

34:                                               ; preds = %29
  %35 = load ptr, ptr %13, align 8, !tbaa !33
  %36 = load i8, ptr %35, align 1, !tbaa !160
  %37 = call signext i8 @sanitize_char(i8 noundef signext %36)
  call void @av_bprint_chars(ptr noundef %11, i8 noundef signext %37, i32 noundef 1)
  br label %38

38:                                               ; preds = %34
  %39 = load ptr, ptr %13, align 8, !tbaa !33
  %40 = getelementptr inbounds nuw i8, ptr %39, i32 1
  store ptr %40, ptr %13, align 8, !tbaa !33
  br label %29, !llvm.loop !161

41:                                               ; preds = %33
  %42 = getelementptr inbounds nuw %struct.AVBPrint, ptr %11, i32 0, i32 0
  %43 = load ptr, ptr %42, align 8, !tbaa !131
  %44 = getelementptr inbounds nuw %struct.AVTextFormatSectionContext, ptr %10, i32 0, i32 0
  store ptr %43, ptr %44, align 8, !tbaa !117
  %45 = load ptr, ptr %9, align 8, !tbaa !27
  %46 = load i32, ptr %6, align 4, !tbaa !21
  call void @avtext_print_section_header(ptr noundef %45, ptr noundef %10, i32 noundef %46)
  %47 = call i32 @av_bprint_finalize(ptr noundef %11, ptr noundef null)
  store i32 0, ptr %12, align 4
  br label %48

48:                                               ; preds = %41, %19
  call void @llvm.lifetime.end.p0(i64 1024, ptr %11) #9
  call void @llvm.lifetime.end.p0(i64 24, ptr %10) #9
  call void @llvm.lifetime.end.p0(i64 8, ptr %9) #9
  %49 = load i32, ptr %12, align 4
  switch i32 %49, label %51 [
    i32 0, label %50
    i32 1, label %50
  ]

50:                                               ; preds = %48, %48
  ret void

51:                                               ; preds = %48
  unreachable
}