; Function Attrs: nounwind uwtable
define internal fastcc void @print_section_header_id(ptr noundef readonly captures(none) %0, i32 noundef range(i32 3, 27) %1, ptr noundef readonly captures(address_is_null) %2) unnamed_addr #0 {
  %4 = alloca %struct.AVTextFormatSectionContext, align 8
  %5 = alloca %struct.AVBPrint, align 8
  %6 = load ptr, ptr %0, align 8, !tbaa !13
  call void @llvm.lifetime.start.p0(i64 24, ptr nonnull %4) #7
  %7 = getelementptr inbounds nuw i8, ptr %4, i64 8
  call void @llvm.memset.p0.i64(ptr noundef nonnull align 8 dereferenceable(16) %7, i8 0, i64 16, i1 false)
  call void @llvm.lifetime.start.p0(i64 1024, ptr nonnull %5) #7
  %.not = icmp eq ptr %2, null
  br i1 %.not, label %21, label %8

8:                                                ; preds = %3
  call void @av_bprint_init(ptr noundef nonnull %5, i32 noundef 0, i32 noundef -1) #7
  %9 = getelementptr inbounds nuw i8, ptr %0, i64 40
  %10 = load i32, ptr %9, align 8, !tbaa !26
  call void (ptr, ptr, ...) @av_bprintf(ptr noundef nonnull %5, ptr noundef nonnull @.str.60, i32 noundef %10) #7
  %11 = load i8, ptr %2, align 1, !tbaa !117
  %.not1112 = icmp eq i8 %11, 0
  br i1 %.not1112, label %._crit_edge, label %.lr.ph

._crit_edge:                                      ; preds = %.lr.ph, %8
  %12 = load ptr, ptr %5, align 8, !tbaa !119
  store ptr %12, ptr %4, align 8, !tbaa !84
  call void @avtext_print_section_header(ptr noundef %6, ptr noundef nonnull %4, i32 noundef %1) #7
  %13 = call i32 @av_bprint_finalize(ptr noundef nonnull %5, ptr noundef null) #7
  br label %21

.lr.ph:                                           ; preds = %8, %.lr.ph
  %14 = phi i8 [ %20, %.lr.ph ], [ %11, %8 ]
  %.013 = phi ptr [ %19, %.lr.ph ], [ %2, %8 ]
  %15 = add i8 %14, -48
  %or.cond.i = icmp ult i8 %15, 10
  %16 = and i8 %14, -33
  %17 = add i8 %16, -65
  %18 = icmp ult i8 %17, 26
  %or.cond17.i = or i1 %or.cond.i, %18
  %.0.i = select i1 %or.cond17.i, i8 %14, i8 95
  call void @av_bprint_chars(ptr noundef nonnull %5, i8 noundef signext %.0.i, i32 noundef 1) #7
  %19 = getelementptr inbounds nuw i8, ptr %.013, i64 1
  %20 = load i8, ptr %19, align 1, !tbaa !117
  %.not11 = icmp eq i8 %20, 0
  br i1 %.not11, label %._crit_edge, label %.lr.ph, !llvm.loop !260

21:                                               ; preds = %3, %._crit_edge
  call void @llvm.lifetime.end.p0(i64 1024, ptr nonnull %5) #7
  call void @llvm.lifetime.end.p0(i64 24, ptr nonnull %4) #7
  ret void
}